Certificate:
    Data:
        Version: 3 (0x2)
        Serial Number:
            36:2f:1e:f5:50:8d:a0:2d:8f:c9:a3:5f:ab:b8:09:83
        Signature Algorithm: sha256WithRSAEncryption
        Issuer: CN=MyVPN-CA
        Validity
            Not Before: Dec 29 00:15:54 2024 GMT
            Not After : Apr  3 00:15:54 2027 GMT
        Subject: CN=MyVPN-Server
        Subject Public Key Info:
            Public Key Algorithm: rsaEncryption
                Public-Key: (2048 bit)
                Modulus:
                    00:d9:ce:32:c6:b6:59:45:cc:f9:8d:7b:4d:14:8c:
                    bf:43:32:d0:5d:26:02:fe:0b:09:d3:e2:8b:88:23:
                    e0:0f:f0:ca:01:0d:92:01:13:3d:52:7b:09:9b:eb:
                    2c:65:ba:55:f3:89:af:01:0b:08:67:d7:04:61:0f:
                    9c:4a:16:be:6e:b7:af:67:4b:86:24:06:75:e5:54:
                    44:59:0b:a3:10:35:8d:85:94:21:b3:a3:77:2f:a5:
                    a6:21:78:1d:a7:82:48:39:83:ad:c3:4a:62:cd:31:
                    c1:92:78:8a:07:53:41:21:c0:ee:3b:86:12:cd:6b:
                    7d:0a:e8:29:1a:e0:8e:22:2c:8b:eb:dd:64:6f:4e:
                    a0:8d:77:ed:4f:58:79:42:34:35:fc:d4:64:9c:b4:
                    4c:52:4c:4c:18:a7:8c:d7:78:62:44:42:33:6f:fb:
                    43:1c:41:fe:7f:ad:94:40:8f:66:17:fd:61:8e:55:
                    96:f4:f2:75:6c:1a:19:c9:46:89:86:cc:d6:e3:c2:
                    ce:1e:88:1e:2b:d7:1b:95:d6:c8:df:3b:b7:62:61:
                    36:78:99:32:dc:88:b8:aa:f3:b5:82:73:c5:50:f4:
                    f1:fe:4b:62:ee:86:80:de:c5:c3:f8:fe:d1:94:c1:
                    b1:44:2a:50:f5:5f:d6:c5:c4:3c:d1:9b:b2:90:3b:
                    40:97
                Exponent: 65537 (0x10001)
        X509v3 extensions:
            X509v3 Basic Constraints: 
                CA:FALSE
            X509v3 Subject Key Identifier: 
                AF:B2:A4:D9:C9:72:9E:26:72:9A:43:1B:F7:2A:87:68:C8:00:ED:75
            X509v3 Authority Key Identifier: 
                keyid:4B:FE:5E:7A:44:3D:0C:4E:BA:B3:ED:0D:CD:2C:FE:B2:39:DD:72:67
                DirName:/CN=MyVPN-CA
                serial:02:EC:54:27:54:EF:82:DB:81:55:64:A4:9B:3D:67:FE:AA:D2:E6:EE
            X509v3 Extended Key Usage: 
                TLS Web Server Authentication
            X509v3 Key Usage: 
                Digital Signature, Key Encipherment
            X509v3 Subject Alternative Name: 
                DNS:MyVPN-Server
    Signature Algorithm: sha256WithRSAEncryption
    Signature Value:
        74:82:5c:9c:d5:11:d3:89:fc:68:f6:c3:ea:1c:14:06:d7:55:
        27:a9:4a:45:7a:a7:9e:81:85:16:fc:a0:8f:47:ea:51:4f:25:
        f1:63:f3:23:37:b6:5c:b5:9b:0f:6f:fc:44:21:ac:71:30:37:
        21:78:8e:2d:6f:2d:d7:2a:7b:3f:8b:9c:7a:74:9b:22:de:1d:
        f1:c5:ba:f2:be:cd:ea:82:f3:5a:51:6d:4d:fe:9a:8e:46:2d:
        14:03:d0:14:2c:6c:87:09:b6:7a:d4:6e:9d:1c:2a:a7:65:d6:
        57:96:64:80:8f:a6:d4:0f:f4:ae:b4:10:4b:8f:45:ac:75:e8:
        73:54:98:9c:77:5d:4f:a4:a0:96:68:d1:83:28:d7:a3:2c:72:
        65:80:93:d4:9a:f2:89:15:6c:ee:75:b9:22:2d:cc:6e:f7:7c:
        d7:95:9b:a7:24:27:94:31:4e:91:1d:50:7e:37:44:f8:95:61:
        6f:e9:30:77:32:5a:45:04:45:e0:0c:30:0d:3f:db:cd:c3:5b:
        22:64:61:69:c1:49:7f:50:83:58:be:5f:f0:14:9c:72:db:39:
        fc:80:87:de:02:f2:19:e5:3b:8a:15:32:55:85:61:b7:4a:85:
        06:05:2c:c3:6b:79:10:e3:a5:89:d4:af:7b:47:87:03:2e:8b:
        61:f2:fc:65
-----BEGIN CERTIFICATE-----
MIIDbTCCAlWgAwIBAgIQNi8e9VCNoC2PyaNfq7gJgzANBgkqhkiG9w0BAQsFADAT
MREwDwYDVQQDDAhNeVZQTi1DQTAeFw0yNDEyMjkwMDE1NTRaFw0yNzA0MDMwMDE1
NTRaMBcxFTATBgNVBAMMDE15VlBOLVNlcnZlcjCCASIwDQYJKoZIhvcNAQEBBQAD
ggEPADCCAQoCggEBANnOMsa2WUXM+Y17TRSMv0My0F0mAv4LCdPii4gj4A/wygEN
kgETPVJ7CZvrLGW6VfOJrwELCGfXBGEPnEoWvm63r2dLhiQGdeVURFkLoxA1jYWU
IbOjdy+lpiF4HaeCSDmDrcNKYs0xwZJ4igdTQSHA7juGEs1rfQroKRrgjiIsi+vd
ZG9OoI137U9YeUI0NfzUZJy0TFJMTBinjNd4YkRCM2/7QxxB/n+tlECPZhf9YY5V
lvTydWwaGclGiYbM1uPCzh6IHivXG5XWyN87t2JhNniZMtyIuKrztYJzxVD08f5L
Yu6GgN7Fw/j+0ZTBsUQqUPVf1sXEPNGbspA7QJcCAwEAAaOBuDCBtTAJBgNVHRME
AjAAMB0GA1UdDgQWBBSvsqTZyXKeJnKaQxv3KodoyADtdTBOBgNVHSMERzBFgBRL
/l56RD0MTrqz7Q3NLP6yOd1yZ6EXpBUwEzERMA8GA1UEAwwITXlWUE4tQ0GCFALs
VCdU74LbgVVkpJs9Z/6q0ubuMBMGA1UdJQQMMAoGCCsGAQUFBwMBMAsGA1UdDwQE
AwIFoDAXBgNVHREEEDAOggxNeVZQTi1TZXJ2ZXIwDQYJKoZIhvcNAQELBQADggEB
AHSCXJzVEdOJ/Gj2w+ocFAbXVSepSkV6p56BhRb8oI9H6lFPJfFj8yM3tly1mw9v
/EQhrHEwNyF4ji1vLdcqez+LnHp0myLeHfHFuvK+zeqC81pRbU3+mo5GLRQD0BQs
bIcJtnrUbp0cKqdl1leWZICPptQP9K60EEuPRax16HNUmJx3XU+koJZo0YMo16Ms
cmWAk9Sa8okVbO51uSItzG73fNeVm6ckJ5QxTpEdUH43RPiVYW/pMHcyWkUEReAM
MA0/283DWyJkYWnBSX9Qg1i+X/AUnHLbOfyAh94C8hnlO4oVMlWFYbdKhQYFLMNr
eRDjpYnUr3tHhwMui2Hy/GU=
-----END CERTIFICATE-----
